target datalayout = "e-m:e-p270:32:32-p271:32:32-p272:64:64-i64:64-i128:128-f80:128-n8:16:32:64-S128"
target triple = "x86_64-pc-linux-gnu"

%struct._packet_info = type { ptr, ptr, i32, i32, %struct.nstime_t, %struct.nstime_t, %struct.nstime_t, i8, ptr, ptr, ptr, ptr, %struct._address, %struct._address, %struct._address, %struct._address, %struct._address, %struct._address, i32, ptr, i8, [3 x i8], %struct.anon, i32, i32, i32, i32, ptr, i8, ptr, ptr, i16, i16, i32, i32, i16, i32, i32, ptr, ptr, ptr, i8, i8, i16, i16, i16, i32, i16, i16, ptr, ptr, ptr, ptr, ptr, i32, i32 }
%struct.nstime_t = type { i64, i32 }
%struct._address = type { i32, i32, ptr, ptr }
%struct.anon = type { i8, [3 x i8] }

@hf_ua3g_command_feedback = internal global i32 0, align 4
@hf_ua3g_feedback_level = internal global i32 0, align 4
@hf_ua3g_feedback_duration = internal global i32 0, align 4
@.str.992 = private unnamed_addr constant [4 x i8] c"Off\00", align 1
@.str.1169 = private unnamed_addr constant [3 x i8] c"On\00", align 1
@.str.1223 = private unnamed_addr constant [5 x i8] c": %s\00", align 1
@.str.1247 = private unnamed_addr constant [6 x i8] c"%d ms\00", align 1

; Function Attrs: null_pointer_is_valid sspstrong uwtable
define internal void @decode_feedback(ptr noundef %0, ptr noundef %1, ptr noundef %2, i32 noundef %3, i32 noundef %4) #0 {
  %6 = alloca ptr, align 8
  %7 = alloca ptr, align 8
  %8 = alloca ptr, align 8
  %9 = alloca i32, align 4
  %10 = alloca i32, align 4
  %11 = alloca i8, align 1
  %12 = alloca ptr, align 8
  %13 = alloca i32, align 4
  store ptr %0, ptr %6, align 8
  store ptr %1, ptr %7, align 8
  store ptr %2, ptr %8, align 8
  store i32 %3, ptr %9, align 4
  store i32 %4, ptr %10, align 4
  call void @llvm.lifetime.start.p0(i64 1, ptr %11) #8
  call void @llvm.lifetime.start.p0(i64 8, ptr %12) #8
  %14 = load ptr, ptr %7, align 8
  %15 = load i32, ptr %9, align 4
  %16 = call zeroext i8 @tvb_get_uint8(ptr noundef %14, i32 noundef %15)
  store i8 %16, ptr %11, align 1
  %17 = load i8, ptr %11, align 1
  %18 = zext i8 %17 to i32
  %19 = icmp ne i32 %18, 0
  %20 = select i1 %19, ptr @.str.1169, ptr @.str.992
  store ptr %20, ptr %12, align 8
  %21 = load ptr, ptr %8, align 8
  %22 = getelementptr inbounds nuw %struct._packet_info, ptr %21, i32 0, i32 1
  %23 = load ptr, ptr %22, align 8
  %24 = load ptr, ptr %12, align 8
  call void (ptr, i32, ptr, ...) @col_append_fstr(ptr noundef %23, i32 noundef 25, ptr noundef @.str.1223, ptr noundef %24)
  %25 = load ptr, ptr %6, align 8
  %26 = icmp ne ptr %25, null
  br i1 %26, label %28, label %27

27:                                               ; preds = %5
  store i32 1, ptr %13, align 4
  br label %78

28:                                               ; preds = %5
  %29 = load ptr, ptr %6, align 8
  %30 = load i32, ptr @hf_ua3g_command_feedback, align 4
  %31 = load ptr, ptr %7, align 8
  %32 = load i32, ptr %9, align 4
  %33 = call ptr @proto_tree_add_item(ptr noundef %29, i32 noundef %30, ptr noundef %31, i32 noundef %32, i32 noundef 1, i32 noundef 0)
  %34 = load i32, ptr %9, align 4
  %35 = add i32 %34, 1
  store i32 %35, ptr %9, align 4
  %36 = load i32, ptr %10, align 4
  %37 = add i32 %36, -1
  store i32 %37, ptr %10, align 4
  %38 = load i8, ptr %11, align 1
  %39 = zext i8 %38 to i32
  %40 = icmp eq i32 %39, 1
  br i1 %40, label %41, label %77

41:                                               ; preds = %28
  %42 = load ptr, ptr %6, align 8
  %43 = load i32, ptr @hf_ua3g_feedback_level, align 4
  %44 = load ptr, ptr %7, align 8
  %45 = load i32, ptr %9, align 4
  %46 = load ptr, ptr %7, align 8
  %47 = load i32, ptr %9, align 4
  %48 = call zeroext i8 @tvb_get_uint8(ptr noundef %46, i32 noundef %47)
  %49 = zext i8 %48 to i32
  %50 = sdiv i32 %49, 2
  %51 = trunc i32 %50 to i8
  %52 = sext i8 %51 to i32
  %53 = call ptr @proto_tree_add_int(ptr noundef %42, i32 noundef %43, ptr noundef %44, i32 noundef %45, i32 noundef 1, i32 noundef %52)
  %54 = load i32, ptr %9, align 4
  %55 = add i32 %54, 1
  store i32 %55, ptr %9, align 4
  %56 = load i32, ptr %10, align 4
  %57 = add i32 %56, -1
  store i32 %57, ptr %10, align 4
  %58 = load i32, ptr %10, align 4
  %59 = icmp ugt i32 %58, 0
  br i1 %59, label %60, label %76

60:                                               ; preds = %41
  %61 = load ptr, ptr %6, align 8
  %62 = load i32, ptr @hf_ua3g_feedback_duration, align 4
  %63 = load ptr, ptr %7, align 8
  %64 = load i32, ptr %9, align 4
  %65 = load ptr, ptr %7, align 8
  %66 = load i32, ptr %9, align 4
  %67 = call zeroext i8 @tvb_get_uint8(ptr noundef %65, i32 noundef %66)
  %68 = zext i8 %67 to i32
  %69 = mul i32 %68, 10
  %70 = load ptr, ptr %7, align 8
  %71 = load i32, ptr %9, align 4
  %72 = call zeroext i8 @tvb_get_uint8(ptr noundef %70, i32 noundef %71)
  %73 = zext i8 %72 to i32
  %74 = mul i32 %73, 10
  %75 = call ptr (ptr, i32, ptr, i32, i32, i32, ptr, ...) @proto_tree_add_uint_format_value(ptr noundef %61, i32 noundef %62, ptr noundef %63, i32 noundef %64, i32 noundef 1, i32 noundef %69, ptr noundef @.str.1247, i32 noundef %74)
  br label %76

76:                                               ; preds = %60, %41
  br label %77

77:                                               ; preds = %76, %28
  store i32 0, ptr %13, align 4
  br label %78

78:                                               ; preds = %77, %27
  call void @llvm.lifetime.end.p0(i64 8, ptr %12) #8
  call void @llvm.lifetime.end.p0(i64 1, ptr %11) #8
  %79 = load i32, ptr %13, align 4
  switch i32 %79, label %81 [
    i32 0, label %80
    i32 1, label %80
  ]

80:                                               ; preds = %78, %78
  ret void

81:                                               ; preds = %78
  unreachable
}