; Function Attrs: null_pointer_is_valid sspstrong uwtable
define internal fastcc void @decode_feedback(ptr noundef %0, ptr noundef %1, ptr noundef readonly captures(none) %2, i32 noundef range(i32 -1, 65535) %3) unnamed_addr #0 {
  %5 = tail call zeroext i8 @tvb_get_uint8(ptr noundef %1, i32 noundef 3)
  %.not = icmp eq i8 %5, 0
  %6 = select i1 %.not, ptr @.str.992, ptr @.str.1169
  %7 = getelementptr inbounds nuw i8, ptr %2, i64 8
  %8 = load ptr, ptr %7, align 8
  tail call void (ptr, i32, ptr, ...) @col_append_fstr(ptr noundef %8, i32 noundef 25, ptr noundef nonnull @.str.1223, ptr noundef nonnull %6)
  %.not26 = icmp eq ptr %0, null
  br i1 %.not26, label %28, label %9

9:                                                ; preds = %4
  %10 = load i32, ptr @hf_ua3g_command_feedback, align 4
  %11 = tail call ptr @proto_tree_add_item(ptr noundef nonnull %0, i32 noundef %10, ptr noundef %1, i32 noundef 3, i32 noundef 1, i32 noundef 0)
  %12 = icmp eq i8 %5, 1
  br i1 %12, label %13, label %28

13:                                               ; preds = %9
  %14 = load i32, ptr @hf_ua3g_feedback_level, align 4
  %15 = tail call zeroext i8 @tvb_get_uint8(ptr noundef %1, i32 noundef 4)
  %16 = lshr i8 %15, 1
  %17 = zext nneg i8 %16 to i32
  %18 = tail call ptr @proto_tree_add_int(ptr noundef nonnull %0, i32 noundef %14, ptr noundef %1, i32 noundef 4, i32 noundef 1, i32 noundef %17)
  %.not27 = icmp eq i32 %3, 2
  br i1 %.not27, label %28, label %19

19:                                               ; preds = %13
  %20 = load i32, ptr @hf_ua3g_feedback_duration, align 4
  %21 = tail call zeroext i8 @tvb_get_uint8(ptr noundef %1, i32 noundef 5)
  %22 = zext i8 %21 to i32
  %23 = mul nuw nsw i32 %22, 10
  %24 = tail call zeroext i8 @tvb_get_uint8(ptr noundef %1, i32 noundef 5)
  %25 = zext i8 %24 to i32
  %26 = mul nuw nsw i32 %25, 10
  %27 = tail call ptr (ptr, i32, ptr, i32, i32, i32, ptr, ...) @proto_tree_add_uint_format_value(ptr noundef nonnull %0, i32 noundef %20, ptr noundef %1, i32 noundef 5, i32 noundef 1, i32 noundef %23, ptr noundef nonnull @.str.1247, i32 noundef %26)
  br label %28

28:                                               ; preds = %9, %19, %13, %4
  ret void
}